target datalayout = "e-m:e-p270:32:32-p271:32:32-p272:64:64-i64:64-i128:128-f80:128-n8:16:32:64-S128"
target triple = "x86_64-pc-linux-gnu"

%struct.PageHeaderData = type { %struct.PageXLogRecPtr, i16, i16, i16, i16, i16, i16, i32, [0 x %struct.ItemIdData] }
%struct.PageXLogRecPtr = type { i32, i32 }
%struct.ItemIdData = type { i32 }

@PageSetChecksumCopy.pageCopy = internal global ptr null, align 8
@TopMemoryContext = external global ptr, align 8

; Function Attrs: inlinehint nounwind uwtable
define internal zeroext i1 @PageIsNew(ptr noundef %0) #3 {
  %2 = alloca ptr, align 8
  store ptr %0, ptr %2, align 8
  %3 = load ptr, ptr %2, align 8
  %4 = getelementptr inbounds nuw %struct.PageHeaderData, ptr %3, i32 0, i32 4
  %5 = load i16, ptr %4, align 2
  %6 = zext i16 %5 to i32
  %7 = icmp eq i32 %6, 0
  ret i1 %7
}

; Function Attrs: nounwind uwtable
define dso_local ptr @PageSetChecksumCopy(ptr noundef %0, i32 noundef %1) #0 {
  %3 = alloca ptr, align 8
  %4 = alloca ptr, align 8
  %5 = alloca i32, align 4
  store ptr %0, ptr %4, align 8
  store i32 %1, ptr %5, align 4
  %6 = load ptr, ptr %4, align 8
  %7 = call zeroext i1 @PageIsNew(ptr noundef %6)
  br i1 %7, label %10, label %8

8:                                                ; preds = %2
  %9 = call zeroext i1 @DataChecksumsEnabled()
  br i1 %9, label %12, label %10

10:                                               ; preds = %8, %2
  %11 = load ptr, ptr %4, align 8
  store ptr %11, ptr %3, align 8
  br label %27

12:                                               ; preds = %8
  %13 = load ptr, ptr @PageSetChecksumCopy.pageCopy, align 8
  %14 = icmp eq ptr %13, null
  br i1 %14, label %15, label %18

15:                                               ; preds = %12
  %16 = load ptr, ptr @TopMemoryContext, align 8
  %17 = call ptr @MemoryContextAllocAligned(ptr noundef %16, i64 noundef 8192, i64 noundef 4096, i32 noundef 0)
  store ptr %17, ptr @PageSetChecksumCopy.pageCopy, align 8
  br label %18

18:                                               ; preds = %15, %12
  %19 = load ptr, ptr @PageSetChecksumCopy.pageCopy, align 8
  %20 = load ptr, ptr %4, align 8
  call void @llvm.memcpy.p0.p0.i64(ptr align 1 %19, ptr align 1 %20, i64 8192, i1 false)
  %21 = load ptr, ptr @PageSetChecksumCopy.pageCopy, align 8
  %22 = load i32, ptr %5, align 4
  %23 = call zeroext i16 @pg_checksum_page(ptr noundef %21, i32 noundef %22)
  %24 = load ptr, ptr @PageSetChecksumCopy.pageCopy, align 8
  %25 = getelementptr inbounds nuw %struct.PageHeaderData, ptr %24, i32 0, i32 1
  store i16 %23, ptr %25, align 4
  %26 = load ptr, ptr @PageSetChecksumCopy.pageCopy, align 8
  store ptr %26, ptr %3, align 8
  br label %27

27:                                               ; preds = %18, %10
  %28 = load ptr, ptr %3, align 8
  ret ptr %28
}