; Function Attrs: nounwind uwtable
define dso_local ptr @PageSetChecksumCopy(ptr noundef readonly captures(ret: address, provenance) %0, i32 noundef %1) local_unnamed_addr #3 {
  %3 = getelementptr i8, ptr %0, i64 14
  %.val = load i16, ptr %3, align 2
  %4 = icmp eq i16 %.val, 0
  br i1 %4, label %18, label %5

5:                                                ; preds = %2
  %6 = tail call zeroext i1 @DataChecksumsEnabled() #12
  br i1 %6, label %7, label %18

7:                                                ; preds = %5
  %8 = load ptr, ptr @PageSetChecksumCopy.pageCopy, align 8
  %9 = icmp eq ptr %8, null
  br i1 %9, label %10, label %13

10:                                               ; preds = %7
  %11 = load ptr, ptr @TopMemoryContext, align 8
  %12 = tail call ptr @MemoryContextAllocAligned(ptr noundef %11, i64 noundef 8192, i64 noundef 4096, i32 noundef 0) #12
  store ptr %12, ptr @PageSetChecksumCopy.pageCopy, align 8
  br label %13

13:                                               ; preds = %10, %7
  %14 = phi ptr [ %12, %10 ], [ %8, %7 ]
  tail call void @llvm.memcpy.p0.p0.i64(ptr noundef nonnull align 1 dereferenceable(8192) %14, ptr noundef nonnull align 1 dereferenceable(8192) %0, i64 8192, i1 false)
  %15 = tail call zeroext i16 @pg_checksum_page(ptr noundef nonnull %14, i32 noundef %1) #12
  %16 = load ptr, ptr @PageSetChecksumCopy.pageCopy, align 8
  %17 = getelementptr inbounds nuw i8, ptr %16, i64 8
  store i16 %15, ptr %17, align 4
  br label %18

18:                                               ; preds = %2, %5, %13
  %.0 = phi ptr [ %16, %13 ], [ %0, %5 ], [ %0, %2 ]
  ret ptr %.0
}